target datalayout = "e-m:e-p270:32:32-p271:32:32-p272:64:64-i64:64-i128:128-f80:128-n8:16:32:64-S128"
target triple = "x86_64-pc-linux-gnu"

%struct.ct_test_fixture = type { ptr, i64, ptr, ptr, ptr, ptr, i32, i32, ptr, i64, ptr, ptr, ptr, i32 }

@.str.16 = private unnamed_addr constant [26 x i8] c"../openssl/test/ct_test.c\00", align 1
@.str.17 = private unnamed_addr constant [43 x i8] c"fixture = OPENSSL_zalloc(sizeof(*fixture))\00", align 1
@.str.18 = private unnamed_addr constant [41 x i8] c"fixture->ctlog_store = CTLOG_STORE_new()\00", align 1
@.str.19 = private unnamed_addr constant [52 x i8] c"CTLOG_STORE_load_default_file(fixture->ctlog_store)\00", align 1
@.str.20 = private unnamed_addr constant [2 x i8] c"1\00", align 1
@.str.21 = private unnamed_addr constant [16 x i8] c"Failed to setup\00", align 1

; Function Attrs: nounwind uwtable
define internal ptr @set_up(ptr noundef %0) #0 {
  %2 = alloca ptr, align 8
  %3 = alloca ptr, align 8
  %4 = alloca ptr, align 8
  %5 = alloca i32, align 4
  store ptr %0, ptr %3, align 8, !tbaa !4
  call void @llvm.lifetime.start.p0(i64 8, ptr %4) #9
  store ptr null, ptr %4, align 8, !tbaa !9
  %6 = call noalias ptr @CRYPTO_zalloc(i64 noundef 104, ptr noundef @.str.16, i32 noundef 64)
  store ptr %6, ptr %4, align 8, !tbaa !9
  %7 = call i32 @test_ptr(ptr noundef @.str.16, i32 noundef 64, ptr noundef @.str.17, ptr noundef %6)
  %8 = icmp ne i32 %7, 0
  br i1 %8, label %10, label %9

9:                                                ; preds = %1
  br label %31

10:                                               ; preds = %1
  %11 = load ptr, ptr %3, align 8, !tbaa !4
  %12 = load ptr, ptr %4, align 8, !tbaa !9
  %13 = getelementptr inbounds nuw %struct.ct_test_fixture, ptr %12, i32 0, i32 0
  store ptr %11, ptr %13, align 8, !tbaa !36
  %14 = load ptr, ptr %4, align 8, !tbaa !9
  %15 = getelementptr inbounds nuw %struct.ct_test_fixture, ptr %14, i32 0, i32 1
  store i64 1580335307000, ptr %15, align 8, !tbaa !25
  %16 = call ptr @CTLOG_STORE_new()
  %17 = load ptr, ptr %4, align 8, !tbaa !9
  %18 = getelementptr inbounds nuw %struct.ct_test_fixture, ptr %17, i32 0, i32 2
  store ptr %16, ptr %18, align 8, !tbaa !37
  %19 = call i32 @test_ptr(ptr noundef @.str.16, i32 noundef 68, ptr noundef @.str.18, ptr noundef %16)
  %20 = icmp ne i32 %19, 0
  br i1 %20, label %21, label %28

21:                                               ; preds = %10
  %22 = load ptr, ptr %4, align 8, !tbaa !9
  %23 = getelementptr inbounds nuw %struct.ct_test_fixture, ptr %22, i32 0, i32 2
  %24 = load ptr, ptr %23, align 8, !tbaa !37
  %25 = call i32 @CTLOG_STORE_load_default_file(ptr noundef %24)
  %26 = call i32 @test_int_eq(ptr noundef @.str.16, i32 noundef 70, ptr noundef @.str.19, ptr noundef @.str.20, i32 noundef %25, i32 noundef 1)
  %27 = icmp ne i32 %26, 0
  br i1 %27, label %29, label %28

28:                                               ; preds = %21, %10
  br label %31

29:                                               ; preds = %21
  %30 = load ptr, ptr %4, align 8, !tbaa !9
  store ptr %30, ptr %2, align 8
  store i32 1, ptr %5, align 4
  br label %40

31:                                               ; preds = %28, %9
  %32 = load ptr, ptr %4, align 8, !tbaa !9
  %33 = icmp ne ptr %32, null
  br i1 %33, label %34, label %38

34:                                               ; preds = %31
  %35 = load ptr, ptr %4, align 8, !tbaa !9
  %36 = getelementptr inbounds nuw %struct.ct_test_fixture, ptr %35, i32 0, i32 2
  %37 = load ptr, ptr %36, align 8, !tbaa !37
  call void @CTLOG_STORE_free(ptr noundef %37)
  br label %38

38:                                               ; preds = %34, %31
  %39 = load ptr, ptr %4, align 8, !tbaa !9
  call void @CRYPTO_free(ptr noundef %39, ptr noundef @.str.16, i32 noundef 77)
  call void (ptr, i32, ptr, ...) @test_error(ptr noundef @.str.16, i32 noundef 78, ptr noundef @.str.21)
  store ptr null, ptr %2, align 8
  store i32 1, ptr %5, align 4
  br label %40

40:                                               ; preds = %38, %29
  call void @llvm.lifetime.end.p0(i64 8, ptr %4) #9
  %41 = load ptr, ptr %2, align 8
  ret ptr %41
}