; Function Attrs: nounwind uwtable
define internal fastcc noundef ptr @set_up(ptr noundef %0) unnamed_addr #0 {
  %2 = tail call noalias ptr @CRYPTO_zalloc(i64 noundef 104, ptr noundef nonnull @.str.16, i32 noundef 64) #8
  %3 = tail call i32 @test_ptr(ptr noundef nonnull @.str.16, i32 noundef 64, ptr noundef nonnull @.str.17, ptr noundef %2) #8
  %.not = icmp eq i32 %3, 0
  br i1 %.not, label %13, label %4

4:                                                ; preds = %1
  store ptr %0, ptr %2, align 8, !tbaa !29
  %5 = getelementptr inbounds nuw i8, ptr %2, i64 8
  store i64 1580335307000, ptr %5, align 8, !tbaa !24
  %6 = tail call ptr @CTLOG_STORE_new() #8
  %7 = getelementptr inbounds nuw i8, ptr %2, i64 16
  store ptr %6, ptr %7, align 8, !tbaa !18
  %8 = tail call i32 @test_ptr(ptr noundef nonnull @.str.16, i32 noundef 68, ptr noundef nonnull @.str.18, ptr noundef %6) #8
  %.not11 = icmp eq i32 %8, 0
  br i1 %.not11, label %.thread, label %9

9:                                                ; preds = %4
  %10 = load ptr, ptr %7, align 8, !tbaa !18
  %11 = tail call i32 @CTLOG_STORE_load_default_file(ptr noundef %10) #8
  %12 = tail call i32 @test_int_eq(ptr noundef nonnull @.str.16, i32 noundef 70, ptr noundef nonnull @.str.19, ptr noundef nonnull @.str.20, i32 noundef %11, i32 noundef 1) #8
  %.not12 = icmp eq i32 %12, 0
  br i1 %.not12, label %.thread, label %17

13:                                               ; preds = %1
  %.not13 = icmp eq ptr %2, null
  br i1 %.not13, label %16, label %.thread

.thread:                                          ; preds = %9, %4, %13
  %14 = getelementptr inbounds nuw i8, ptr %2, i64 16
  %15 = load ptr, ptr %14, align 8, !tbaa !18
  tail call void @CTLOG_STORE_free(ptr noundef %15) #8
  br label %16

16:                                               ; preds = %.thread, %13
  tail call void @CRYPTO_free(ptr noundef %2, ptr noundef nonnull @.str.16, i32 noundef 77) #8
  tail call void (ptr, i32, ptr, ...) @test_error(ptr noundef nonnull @.str.16, i32 noundef 78, ptr noundef nonnull @.str.21) #8
  br label %17

17:                                               ; preds = %9, %16
  %.0 = phi ptr [ null, %16 ], [ %2, %9 ]
  ret ptr %.0
}